; ModuleID = '57/165.c'
source_filename = "57/165.c"
target datalayout = "e-m:e-p270:32:32-p271:32:32-p272:64:64-i64:64-f80:128-n8:16:32:64-S128"
target triple = "x86_64-pc-linux-gnu"

@.str = private unnamed_addr constant [4 x i8] c"%d\0A\00", align 1
@.str.1 = private unnamed_addr constant [3 x i8] c"%c\00", align 1
@.str.2 = private unnamed_addr constant [2 x i8] c"\0A\00", align 1

; Function Attrs: noinline nounwind uwtable
define dso_local i32 @main() #0 {
  %1 = alloca i32, align 4
  %2 = alloca i32, align 4
  %3 = alloca i32, align 4
  %4 = alloca i32, align 4
  %5 = alloca [50 x [20 x i8]], align 16
  %6 = alloca [50 x i32], align 16
  store i32 0, i32* %1, align 4
  %7 = call i32 (i8*, ...) @__isoc99_scanf(i8* getelementptr inbounds ([4 x i8], [4 x i8]* @.str, i64 0, i64 0), i32* %2)
  store i32 0, i32* %3, align 4
  br label %8

8:                                                ; preds = %26, %0
  %9 = load i32, i32* %3, align 4
  %10 = icmp slt i32 %9, 50
  br i1 %10, label %11, label %29

11:                                               ; preds = %8
  store i32 0, i32* %4, align 4
  br label %12

12:                                               ; preds = %22, %11
  %13 = load i32, i32* %4, align 4
  %14 = icmp slt i32 %13, 20
  br i1 %14, label %15, label %25

15:                                               ; preds = %12
  %16 = load i32, i32* %3, align 4
  %17 = sext i32 %16 to i64
  %18 = getelementptr inbounds [50 x [20 x i8]], [50 x [20 x i8]]* %5, i64 0, i64 %17
  %19 = load i32, i32* %4, align 4
  %20 = sext i32 %19 to i64
  %21 = getelementptr inbounds [20 x i8], [20 x i8]* %18, i64 0, i64 %20
  store i8 0, i8* %21, align 1
  br label %22

22:                                               ; preds = %15
  %23 = load i32, i32* %4, align 4
  %24 = add nsw i32 %23, 1
  store i32 %24, i32* %4, align 4
  br label %12

25:                                               ; preds = %12
  br label %26

26:                                               ; preds = %25
  %27 = load i32, i32* %3, align 4
  %28 = add nsw i32 %27, 1
  store i32 %28, i32* %3, align 4
  br label %8

29:                                               ; preds = %8
  store i32 0, i32* %3, align 4
  br label %30

30:                                               ; preds = %62, %29
  %31 = load i32, i32* %3, align 4
  %32 = load i32, i32* %2, align 4
  %33 = icmp slt i32 %31, %32
  br i1 %33, label %34, label %65

34:                                               ; preds = %30
  store i32 0, i32* %4, align 4
  br label %35

35:                                               ; preds = %54, %34
  %36 = load i32, i32* %3, align 4
  %37 = sext i32 %36 to i64
  %38 = getelementptr inbounds [50 x [20 x i8]], [50 x [20 x i8]]* %5, i64 0, i64 %37
  %39 = load i32, i32* %4, align 4
  %40 = sext i32 %39 to i64
  %41 = getelementptr inbounds [20 x i8], [20 x i8]* %38, i64 0, i64 %40
  %42 = call i32 (i8*, ...) @__isoc99_scanf(i8* getelementptr inbounds ([3 x i8], [3 x i8]* @.str.1, i64 0, i64 0), i8* %41)
  %43 = load i32, i32* %3, align 4
  %44 = sext i32 %43 to i64
  %45 = getelementptr inbounds [50 x [20 x i8]], [50 x [20 x i8]]* %5, i64 0, i64 %44
  %46 = load i32, i32* %4, align 4
  %47 = sext i32 %46 to i64
  %48 = getelementptr inbounds [20 x i8], [20 x i8]* %45, i64 0, i64 %47
  %49 = load i8, i8* %48, align 1
  %50 = sext i8 %49 to i32
  %51 = icmp eq i32 %50, 10
  br i1 %51, label %52, label %53

52:                                               ; preds = %35
  br label %57

53:                                               ; preds = %35
  br label %54

54:                                               ; preds = %53
  %55 = load i32, i32* %4, align 4
  %56 = add nsw i32 %55, 1
  store i32 %56, i32* %4, align 4
  br label %35

57:                                               ; preds = %52
  %58 = load i32, i32* %4, align 4
  %59 = load i32, i32* %3, align 4
  %60 = sext i32 %59 to i64
  %61 = getelementptr inbounds [50 x i32], [50 x i32]* %6, i64 0, i64 %60
  store i32 %58, i32* %61, align 4
  br label %62

62:                                               ; preds = %57
  %63 = load i32, i32* %3, align 4
  %64 = add nsw i32 %63, 1
  store i32 %64, i32* %3, align 4
  br label %30

65:                                               ; preds = %30
  store i32 0, i32* %3, align 4
  br label %66

66:                                               ; preds = %187, %65
  %67 = load i32, i32* %3, align 4
  %68 = load i32, i32* %2, align 4
  %69 = icmp slt i32 %67, %68
  br i1 %69, label %70, label %190

70:                                               ; preds = %66
  %71 = load i32, i32* %3, align 4
  %72 = sext i32 %71 to i64
  %73 = getelementptr inbounds [50 x [20 x i8]], [50 x [20 x i8]]* %5, i64 0, i64 %72
  %74 = load i32, i32* %3, align 4
  %75 = sext i32 %74 to i64
  %76 = getelementptr inbounds [50 x i32], [50 x i32]* %6, i64 0, i64 %75
  %77 = load i32, i32* %76, align 4
  %78 = sub nsw i32 %77, 1
  %79 = sext i32 %78 to i64
  %80 = getelementptr inbounds [20 x i8], [20 x i8]* %73, i64 0, i64 %79
  %81 = load i8, i8* %80, align 1
  %82 = sext i8 %81 to i32
  %83 = icmp eq i32 %82, 114
  br i1 %83, label %84, label %108

84:                                               ; preds = %70
  store i32 0, i32* %4, align 4
  br label %85

85:                                               ; preds = %103, %84
  %86 = load i32, i32* %4, align 4
  %87 = load i32, i32* %3, align 4
  %88 = sext i32 %87 to i64
  %89 = getelementptr inbounds [50 x i32], [50 x i32]* %6, i64 0, i64 %88
  %90 = load i32, i32* %89, align 4
  %91 = sub nsw i32 %90, 2
  %92 = icmp slt i32 %86, %91
  br i1 %92, label %93, label %106

93:                                               ; preds = %85
  %94 = load i32, i32* %3, align 4
  %95 = sext i32 %94 to i64
  %96 = getelementptr inbounds [50 x [20 x i8]], [50 x [20 x i8]]* %5, i64 0, i64 %95
  %97 = load i32, i32* %4, align 4
  %98 = sext i32 %97 to i64
  %99 = getelementptr inbounds [20 x i8], [20 x i8]* %96, i64 0, i64 %98
  %100 = load i8, i8* %99, align 1
  %101 = sext i8 %100 to i32
  %102 = call i32 (i8*, ...) @printf(i8* getelementptr inbounds ([3 x i8], [3 x i8]* @.str.1, i64 0, i64 0), i32 %101)
  br label %103

103:                                              ; preds = %93
  %104 = load i32, i32* %4, align 4
  %105 = add nsw i32 %104, 1
  store i32 %105, i32* %4, align 4
  br label %85

106:                                              ; preds = %85
  %107 = call i32 (i8*, ...) @printf(i8* getelementptr inbounds ([2 x i8], [2 x i8]* @.str.2, i64 0, i64 0))
  br label %186

108:                                              ; preds = %70
  %109 = load i32, i32* %3, align 4
  %110 = sext i32 %109 to i64
  %111 = getelementptr inbounds [50 x [20 x i8]], [50 x [20 x i8]]* %5, i64 0, i64 %110
  %112 = load i32, i32* %3, align 4
  %113 = sext i32 %112 to i64
  %114 = getelementptr inbounds [50 x i32], [50 x i32]* %6, i64 0, i64 %113
  %115 = load i32, i32* %114, align 4
  %116 = sub nsw i32 %115, 1
  %117 = sext i32 %116 to i64
  %118 = getelementptr inbounds [20 x i8], [20 x i8]* %111, i64 0, i64 %117
  %119 = load i8, i8* %118, align 1
  %120 = sext i8 %119 to i32
  %121 = icmp eq i32 %120, 121
  br i1 %121, label %122, label %146

122:                                              ; preds = %108
  store i32 0, i32* %4, align 4
  br label %123

123:                                              ; preds = %141, %122
  %124 = load i32, i32* %4, align 4
  %125 = load i32, i32* %3, align 4
  %126 = sext i32 %125 to i64
  %127 = getelementptr inbounds [50 x i32], [50 x i32]* %6, i64 0, i64 %126
  %128 = load i32, i32* %127, align 4
  %129 = sub nsw i32 %128, 2
  %130 = icmp slt i32 %124, %129
  br i1 %130, label %131, label %144

131:                                              ; preds = %123
  %132 = load i32, i32* %3, align 4
  %133 = sext i32 %132 to i64
  %134 = getelementptr inbounds [50 x [20 x i8]], [50 x [20 x i8]]* %5, i64 0, i64 %133
  %135 = load i32, i32* %4, align 4
  %136 = sext i32 %135 to i64
  %137 = getelementptr inbounds [20 x i8], [20 x i8]* %134, i64 0, i64 %136
  %138 = load i8, i8* %137, align 1
  %139 = sext i8 %138 to i32
  %140 = call i32 (i8*, ...) @printf(i8* getelementptr inbounds ([3 x i8], [3 x i8]* @.str.1, i64 0, i64 0), i32 %139)
  br label %141

141:                                              ; preds = %131
  %142 = load i32, i32* %4, align 4
  %143 = add nsw i32 %142, 1
  store i32 %143, i32* %4, align 4
  br label %123

144:                                              ; preds = %123
  %145 = call i32 (i8*, ...) @printf(i8* getelementptr inbounds ([2 x i8], [2 x i8]* @.str.2, i64 0, i64 0))
  br label %185

146:                                              ; preds = %108
  %147 = load i32, i32* %3, align 4
  %148 = sext i32 %147 to i64
  %149 = getelementptr inbounds [50 x [20 x i8]], [50 x [20 x i8]]* %5, i64 0, i64 %148
  %150 = load i32, i32* %3, align 4
  %151 = sext i32 %150 to i64
  %152 = getelementptr inbounds [50 x i32], [50 x i32]* %6, i64 0, i64 %151
  %153 = load i32, i32* %152, align 4
  %154 = sub nsw i32 %153, 1
  %155 = sext i32 %154 to i64
  %156 = getelementptr inbounds [20 x i8], [20 x i8]* %149, i64 0, i64 %155
  %157 = load i8, i8* %156, align 1
  %158 = sext i8 %157 to i32
  %159 = icmp eq i32 %158, 103
  br i1 %159, label %160, label %184

160:                                              ; preds = %146
  store i32 0, i32* %4, align 4
  br label %161

161:                                              ; preds = %179, %160
  %162 = load i32, i32* %4, align 4
  %163 = load i32, i32* %3, align 4
  %164 = sext i32 %163 to i64
  %165 = getelementptr inbounds [50 x i32], [50 x i32]* %6, i64 0, i64 %164
  %166 = load i32, i32* %165, align 4
  %167 = sub nsw i32 %166, 3
  %168 = icmp slt i32 %162, %167
  br i1 %168, label %169, label %182

169:                                              ; preds = %161
  %170 = load i32, i32* %3, align 4
  %171 = sext i32 %170 to i64
  %172 = getelementptr inbounds [50 x [20 x i8]], [50 x [20 x i8]]* %5, i64 0, i64 %171
  %173 = load i32, i32* %4, align 4
  %174 = sext i32 %173 to i64
  %175 = getelementptr inbounds [20 x i8], [20 x i8]* %172, i64 0, i64 %174
  %176 = load i8, i8* %175, align 1
  %177 = sext i8 %176 to i32
  %178 = call i32 (i8*, ...) @printf(i8* getelementptr inbounds ([3 x i8], [3 x i8]* @.str.1, i64 0, i64 0), i32 %177)
  br label %179

179:                                              ; preds = %169
  %180 = load i32, i32* %4, align 4
  %181 = add nsw i32 %180, 1
  store i32 %181, i32* %4, align 4
  br label %161

182:                                              ; preds = %161
  %183 = call i32 (i8*, ...) @printf(i8* getelementptr inbounds ([2 x i8], [2 x i8]* @.str.2, i64 0, i64 0))
  br label %184

184:                                              ; preds = %182, %146
  br label %185

185:                                              ; preds = %184, %144
  br label %186

186:                                              ; preds = %185, %106
  br label %187

187:                                              ; preds = %186
  %188 = load i32, i32* %3, align 4
  %189 = add nsw i32 %188, 1
  store i32 %189, i32* %3, align 4
  br label %66

190:                                              ; preds = %66
  ret i32 0
}

declare dso_local i32 @__isoc99_scanf(i8*, ...) #1

declare dso_local i32 @printf(i8*, ...) #1


!llvm.module.flags = !{!0}
!llvm.ident = !{!1}

!0 = !{i32 1, !"wchar_size", i32 4}
!1 = !{!"clang version 10.0.0-4ubuntu1 "}
